target datalayout = "e-m:e-p270:32:32-p271:32:32-p272:64:64-i64:64-i128:128-f80:128-n8:16:32:64-S128"
target triple = "x86_64-pc-linux-gnu"

%class.ShenandoahHeapRegionSet = type { ptr, i64, ptr, i64 }
%class.ShenandoahHeapRegion = type { i64, ptr, ptr, ptr, double, i32, ptr, i64, i64, i64, i64, ptr }

; Function Attrs: mustprogress nounwind uwtable
define linkonce_odr hidden noundef i64 @_ZNK20ShenandoahHeapRegion5indexEv(ptr noundef nonnull align 8 dereferenceable(96) %0) #1 comdat align 2 {
  %2 = alloca ptr, align 8
  store ptr %0, ptr %2, align 8
  %3 = load ptr, ptr %2, align 8
  %4 = getelementptr inbounds %class.ShenandoahHeapRegion, ptr %3, i32 0, i32 0
  %5 = load i64, ptr %4, align 8
  ret i64 %5
}

; Function Attrs: mustprogress nounwind uwtable
define hidden void @_ZN23ShenandoahHeapRegionSet13remove_regionEP20ShenandoahHeapRegion(ptr noundef nonnull align 8 dereferenceable(32) %0, ptr noundef %1) #1 align 2 {
  %3 = alloca ptr, align 8
  %4 = alloca ptr, align 8
  store ptr %0, ptr %3, align 8
  store ptr %1, ptr %4, align 8
  %5 = load ptr, ptr %3, align 8
  %6 = getelementptr inbounds %class.ShenandoahHeapRegionSet, ptr %5, i32 0, i32 2
  %7 = load ptr, ptr %6, align 8
  %8 = load ptr, ptr %4, align 8
  %9 = call noundef i64 @_ZNK20ShenandoahHeapRegion5indexEv(ptr noundef nonnull align 8 dereferenceable(96) %8)
  %10 = getelementptr inbounds i8, ptr %7, i64 %9
  store i8 0, ptr %10, align 1
  %11 = getelementptr inbounds %class.ShenandoahHeapRegionSet, ptr %5, i32 0, i32 3
  %12 = load i64, ptr %11, align 8
  %13 = add i64 %12, -1
  store i64 %13, ptr %11, align 8
  ret void
}