; Function Attrs: mustprogress nofree norecurse nosync nounwind willreturn memory(write, argmem: readwrite, inaccessiblemem: none) uwtable
define hidden void @_ZN23ShenandoahHeapRegionSet13remove_regionEP20ShenandoahHeapRegion(ptr nocapture noundef nonnull align 8 dereferenceable(32) %0, ptr nocapture noundef readonly %1) local_unnamed_addr #3 align 2 {
  %3 = getelementptr inbounds i8, ptr %0, i64 16
  %4 = load ptr, ptr %3, align 8
  %5 = load i64, ptr %1, align 8
  %6 = getelementptr inbounds i8, ptr %4, i64 %5
  store i8 0, ptr %6, align 1
  %7 = getelementptr inbounds i8, ptr %0, i64 24
  %8 = load i64, ptr %7, align 8
  %9 = add i64 %8, -1
  store i64 %9, ptr %7, align 8
  ret void
}